target datalayout = "e-m:e-p270:32:32-p271:32:32-p272:64:64-i64:64-i128:128-f80:128-n8:16:32:64-S128"
target triple = "x86_64-pc-linux-gnu"

%"class.std::__cxx11::basic_string" = type { %"struct.std::__cxx11::basic_string<char>::_Alloc_hider", i64, %union.anon }
%"struct.std::__cxx11::basic_string<char>::_Alloc_hider" = type { ptr }
%union.anon = type { i64, [8 x i8] }
%"struct.std::_Rb_tree_header" = type { %"struct.std::_Rb_tree_node_base", i64 }
%"struct.std::_Rb_tree_node_base" = type { i32, ptr, ptr, ptr }
%"class.gmx::OptionInfo" = type { ptr, ptr }
%"class.gmx::FlagsTemplate" = type { i64 }
%"class.gmx::AbstractOptionStorage.base" = type <{ ptr, %"class.std::__cxx11::basic_string", %"class.std::__cxx11::basic_string", %"class.gmx::FlagsTemplate", ptr, i32, i32, i8, i8 }>
%"class.gmx::FloatOptionStorage" = type { %"class.gmx::OptionStorageTemplateSimple.base.146", %"class.gmx::FloatOptionInfo", i8, double }
%"class.gmx::OptionStorageTemplateSimple.base.146" = type <{ %"class.gmx::OptionStorageTemplate.118", %"class.gmx::OptionValueConverterSimple.140", i8 }>
%"class.gmx::OptionStorageTemplate.118" = type { %"class.gmx::AbstractOptionStorage.base", %"class.std::vector.119", %"class.std::unique_ptr.124", %"class.std::unique_ptr.132" }
%"class.std::vector.119" = type { %"struct.std::_Vector_base.120" }
%"struct.std::_Vector_base.120" = type { %"struct.std::_Vector_base<float, std::allocator<float>>::_Vector_impl" }
%"struct.std::_Vector_base<float, std::allocator<float>>::_Vector_impl" = type { %"struct.std::_Vector_base<float, std::allocator<float>>::_Vector_impl_data" }
%"struct.std::_Vector_base<float, std::allocator<float>>::_Vector_impl_data" = type { ptr, ptr, ptr }
%"class.std::unique_ptr.124" = type { %"struct.std::__uniq_ptr_data.125" }
%"struct.std::__uniq_ptr_data.125" = type { %"class.std::__uniq_ptr_impl.126" }
%"class.std::__uniq_ptr_impl.126" = type { %"class.std::tuple.127" }
%"class.std::tuple.127" = type { %"struct.std::_Tuple_impl.128" }
%"struct.std::_Tuple_impl.128" = type { %"struct.std::_Head_base.131" }
%"struct.std::_Head_base.131" = type { ptr }
%"class.std::unique_ptr.132" = type { %"struct.std::__uniq_ptr_data.133" }
%"struct.std::__uniq_ptr_data.133" = type { %"class.std::__uniq_ptr_impl.134" }
%"class.std::__uniq_ptr_impl.134" = type { %"class.std::tuple.135" }
%"class.std::tuple.135" = type { %"struct.std::_Tuple_impl.136" }
%"struct.std::_Tuple_impl.136" = type { %"struct.std::_Head_base.139" }
%"struct.std::_Head_base.139" = type { ptr }
%"class.gmx::OptionValueConverterSimple.140" = type { %"class.std::map.141" }
%"class.std::map.141" = type { %"class.std::_Rb_tree.142" }
%"class.std::_Rb_tree.142" = type { %"struct.std::_Rb_tree<std::type_index, std::pair<const std::type_index, std::function<float (const gmx::Any &)>>, std::_Select1st<std::pair<const std::type_index, std::function<float (const gmx::Any &)>>>, std::less<std::type_index>>::_Rb_tree_impl" }
%"struct.std::_Rb_tree<std::type_index, std::pair<const std::type_index, std::function<float (const gmx::Any &)>>, std::_Select1st<std::pair<const std::type_index, std::function<float (const gmx::Any &)>>>, std::less<std::type_index>>::_Rb_tree_impl" = type { [8 x i8], %"struct.std::_Rb_tree_header" }
%"class.gmx::FloatOptionInfo" = type { %"class.gmx::OptionInfo" }

; Function Attrs: mustprogress nounwind uwtable
define noundef float @_ZNK3gmx18FloatOptionStorage12processValueERKf(ptr noundef nonnull align 8 dereferenceable(232) %0, ptr noundef nonnull align 4 dereferenceable(4) %1) unnamed_addr #2 align 2 {
  %3 = alloca ptr, align 8
  %4 = alloca ptr, align 8
  store ptr %0, ptr %3, align 8, !tbaa !160
  store ptr %1, ptr %4, align 8, !tbaa !201
  %5 = load ptr, ptr %3, align 8
  %6 = load ptr, ptr %4, align 8, !tbaa !201
  %7 = load float, ptr %6, align 4, !tbaa !202
  %8 = fpext float %7 to double
  %9 = getelementptr inbounds nuw %"class.gmx::FloatOptionStorage", ptr %5, i32 0, i32 3
  %10 = load double, ptr %9, align 8, !tbaa !195
  %11 = fmul double %8, %10
  %12 = fptrunc double %11 to float
  ret float %12
}