; Function Attrs: mustprogress nofree norecurse nosync nounwind willreturn memory(argmem: read) uwtable
define noundef float @_ZNK3gmx18FloatOptionStorage12processValueERKf(ptr noundef nonnull readonly align 8 captures(none) dereferenceable(232) %0, ptr noundef nonnull readonly align 4 captures(none) dereferenceable(4) %1) unnamed_addr #5 align 2 {
  %3 = load float, ptr %1, align 4, !tbaa !211
  %4 = fpext float %3 to double
  %5 = getelementptr inbounds nuw i8, ptr %0, i64 224
  %6 = load double, ptr %5, align 8, !tbaa !210
  %7 = fmul double %6, %4
  %8 = fptrunc double %7 to float
  ret float %8
}